; Function Attrs: nounwind sspstrong uwtable
define internal void @chr_be_event(ptr noundef readonly captures(none) %s, i32 noundef %event) #0 {
entry:
  %be1 = getelementptr inbounds nuw i8, ptr %s, i64 88
  %0 = load ptr, ptr %be1, align 8
  %tobool.not = icmp eq ptr %0, null
  br i1 %tobool.not, label %return, label %lor.lhs.false

lor.lhs.false:                                    ; preds = %entry
  %chr_event = getelementptr inbounds nuw i8, ptr %0, i64 8
  %1 = load ptr, ptr %chr_event, align 8
  %tobool2.not = icmp eq ptr %1, null
  br i1 %tobool2.not, label %return, label %if.end

if.end:                                           ; preds = %lor.lhs.false
  %opaque = getelementptr inbounds nuw i8, ptr %0, i64 40
  %2 = load ptr, ptr %opaque, align 8
  tail call void %1(ptr noundef %2, i32 noundef %event) #13
  br label %return

return:                                           ; preds = %entry, %lor.lhs.false, %if.end
  ret void
}